ccopy_reg
_reconstructor
p0
(cgoogle.oauth2.credentials
Credentials
p1
c__builtin__
object
p2
Ntp3
Rp4
(dp5
S'_token_uri'
p6
Vhttps://oauth2.googleapis.com/token
p7
sS'_client_secret'
p8
V-cjWfZXQuX4mKGLE5eByybfj
p9
sS'_id_token'
p10
NsS'token'
p11
Vya29.Il-zB6eWVl0W0aBuen8UiIbDryPlXw9Ef0lCYPvIC8cfmGvFfjMJ67FklVY-ekQJZdsEXIBNMo48xHiJTHkpvBSQIjRdVFxYs0-3V8QDMplRJvV8Hse3xDwEHSv8Sul3Mg
p12
sS'_refresh_token'
p13
V1//097cgKwGhdyCvCgYIARAAGAkSNwF-L9IrqM-rx8Oae-XUgv6Ol5wm7-YyXw3lmcJmmk_OEmxV4wdDHfbY1CpRuItERfc61ms5WCI
p14
sS'_scopes'
p15
(lp16
S'https://www.googleapis.com/auth/gmail.readonly'
p17
asS'_client_id'
p18
V669718421212-oh5omc050um5ccqnb13sbvphfj0iohdt.apps.googleusercontent.com
p19
sS'expiry'
p20
cdatetime
datetime
p21
(S'\x07\xe3\x0b\x1d\x11\x12/\x0c8\xe8'
p22
tp23
Rp24
sb.